; Function Attrs: mustprogress nounwind uwtable
define hidden void @_ZN7NMTDCmdC2EP12outputStreamb(ptr noundef nonnull align 8 dereferenceable(440) %0, ptr noundef %1, i1 noundef zeroext %2) unnamed_addr #0 align 2 {
  %4 = zext i1 %2 to i8
  %5 = getelementptr inbounds i8, ptr %0, i64 8
  store ptr %1, ptr %5, align 8
  %6 = getelementptr inbounds i8, ptr %0, i64 16
  store i8 %4, ptr %6, align 8
  %7 = getelementptr inbounds i8, ptr %0, i64 24
  tail call void @llvm.memset.p0.i64(ptr noundef nonnull align 8 dereferenceable(16) %7, i8 0, i64 16, i1 false)
  store ptr getelementptr inbounds inrange(-16, 56) (i8, ptr @_ZTV7NMTDCmd, i64 16), ptr %0, align 8
  %8 = getelementptr inbounds i8, ptr %0, i64 40
  %9 = getelementptr inbounds i8, ptr %0, i64 48
  store ptr null, ptr %9, align 8
  %10 = getelementptr inbounds i8, ptr %0, i64 56
  store ptr @.str, ptr %10, align 8
  %11 = getelementptr inbounds i8, ptr %0, i64 64
  store ptr @.str.4, ptr %11, align 8
  %12 = getelementptr inbounds i8, ptr %0, i64 72
  store ptr @.str.5, ptr %12, align 8
  %13 = getelementptr inbounds i8, ptr %0, i64 80
  store ptr @.str.6, ptr %13, align 8
  %14 = getelementptr inbounds i8, ptr %0, i64 88
  store i8 0, ptr %14, align 8
  %15 = getelementptr inbounds i8, ptr %0, i64 89
  store i8 0, ptr %15, align 1
  %16 = getelementptr inbounds i8, ptr %0, i64 90
  store i8 0, ptr %16, align 2
  store ptr getelementptr inbounds inrange(-16, 40) (i8, ptr @_ZTV12DCmdArgumentIbE, i64 16), ptr %8, align 8
  %17 = getelementptr inbounds i8, ptr %0, i64 96
  %18 = getelementptr inbounds i8, ptr %0, i64 104
  store ptr null, ptr %18, align 8
  %19 = getelementptr inbounds i8, ptr %0, i64 112
  store ptr @.str.7, ptr %19, align 8
  %20 = getelementptr inbounds i8, ptr %0, i64 120
  store ptr @.str.8, ptr %20, align 8
  %21 = getelementptr inbounds i8, ptr %0, i64 128
  store ptr @.str.5, ptr %21, align 8
  %22 = getelementptr inbounds i8, ptr %0, i64 136
  store ptr @.str.6, ptr %22, align 8
  %23 = getelementptr inbounds i8, ptr %0, i64 144
  store i8 0, ptr %23, align 8
  %24 = getelementptr inbounds i8, ptr %0, i64 145
  store i8 0, ptr %24, align 1
  %25 = getelementptr inbounds i8, ptr %0, i64 146
  store i8 0, ptr %25, align 2
  store ptr getelementptr inbounds inrange(-16, 40) (i8, ptr @_ZTV12DCmdArgumentIbE, i64 16), ptr %17, align 8
  %26 = getelementptr inbounds i8, ptr %0, i64 152
  %27 = getelementptr inbounds i8, ptr %0, i64 160
  store ptr null, ptr %27, align 8
  %28 = getelementptr inbounds i8, ptr %0, i64 168
  store ptr @.str.9, ptr %28, align 8
  %29 = getelementptr inbounds i8, ptr %0, i64 176
  store ptr @.str.10, ptr %29, align 8
  %30 = getelementptr inbounds i8, ptr %0, i64 184
  store ptr @.str.5, ptr %30, align 8
  %31 = getelementptr inbounds i8, ptr %0, i64 192
  store ptr @.str.6, ptr %31, align 8
  %32 = getelementptr inbounds i8, ptr %0, i64 200
  store i8 0, ptr %32, align 8
  %33 = getelementptr inbounds i8, ptr %0, i64 201
  store i8 0, ptr %33, align 1
  %34 = getelementptr inbounds i8, ptr %0, i64 202
  store i8 0, ptr %34, align 2
  store ptr getelementptr inbounds inrange(-16, 40) (i8, ptr @_ZTV12DCmdArgumentIbE, i64 16), ptr %26, align 8
  %35 = getelementptr inbounds i8, ptr %0, i64 208
  %36 = getelementptr inbounds i8, ptr %0, i64 216
  store ptr null, ptr %36, align 8
  %37 = getelementptr inbounds i8, ptr %0, i64 224
  store ptr @.str.11, ptr %37, align 8
  %38 = getelementptr inbounds i8, ptr %0, i64 232
  store ptr @.str.12, ptr %38, align 8
  %39 = getelementptr inbounds i8, ptr %0, i64 240
  store ptr @.str.5, ptr %39, align 8
  %40 = getelementptr inbounds i8, ptr %0, i64 248
  store ptr @.str.6, ptr %40, align 8
  %41 = getelementptr inbounds i8, ptr %0, i64 256
  store i8 0, ptr %41, align 8
  %42 = getelementptr inbounds i8, ptr %0, i64 257
  store i8 0, ptr %42, align 1
  %43 = getelementptr inbounds i8, ptr %0, i64 258
  store i8 0, ptr %43, align 2
  store ptr getelementptr inbounds inrange(-16, 40) (i8, ptr @_ZTV12DCmdArgumentIbE, i64 16), ptr %35, align 8
  %44 = getelementptr inbounds i8, ptr %0, i64 264
  %45 = getelementptr inbounds i8, ptr %0, i64 272
  store ptr null, ptr %45, align 8
  %46 = getelementptr inbounds i8, ptr %0, i64 280
  store ptr @.str.13, ptr %46, align 8
  %47 = getelementptr inbounds i8, ptr %0, i64 288
  store ptr @.str.14, ptr %47, align 8
  %48 = getelementptr inbounds i8, ptr %0, i64 296
  store ptr @.str.5, ptr %48, align 8
  %49 = getelementptr inbounds i8, ptr %0, i64 304
  store ptr @.str.6, ptr %49, align 8
  %50 = getelementptr inbounds i8, ptr %0, i64 312
  store i8 0, ptr %50, align 8
  %51 = getelementptr inbounds i8, ptr %0, i64 313
  store i8 0, ptr %51, align 1
  %52 = getelementptr inbounds i8, ptr %0, i64 314
  store i8 0, ptr %52, align 2
  store ptr getelementptr inbounds inrange(-16, 40) (i8, ptr @_ZTV12DCmdArgumentIbE, i64 16), ptr %44, align 8
  %53 = getelementptr inbounds i8, ptr %0, i64 320
  %54 = getelementptr inbounds i8, ptr %0, i64 328
  store ptr null, ptr %54, align 8
  %55 = getelementptr inbounds i8, ptr %0, i64 336
  store ptr @.str.15, ptr %55, align 8
  %56 = getelementptr inbounds i8, ptr %0, i64 344
  store ptr @.str.16, ptr %56, align 8
  %57 = getelementptr inbounds i8, ptr %0, i64 352
  store ptr @.str.5, ptr %57, align 8
  %58 = getelementptr inbounds i8, ptr %0, i64 360
  store ptr @.str.6, ptr %58, align 8
  %59 = getelementptr inbounds i8, ptr %0, i64 368
  store i8 0, ptr %59, align 8
  %60 = getelementptr inbounds i8, ptr %0, i64 369
  store i8 0, ptr %60, align 1
  %61 = getelementptr inbounds i8, ptr %0, i64 370
  store i8 0, ptr %61, align 2
  store ptr getelementptr inbounds inrange(-16, 40) (i8, ptr @_ZTV12DCmdArgumentIbE, i64 16), ptr %53, align 8
  %62 = getelementptr inbounds i8, ptr %0, i64 376
  %63 = getelementptr inbounds i8, ptr %0, i64 384
  store ptr null, ptr %63, align 8
  %64 = getelementptr inbounds i8, ptr %0, i64 392
  store ptr @.str.17, ptr %64, align 8
  %65 = getelementptr inbounds i8, ptr %0, i64 400
  store ptr @.str.18, ptr %65, align 8
  %66 = getelementptr inbounds i8, ptr %0, i64 408
  store ptr @.str.19, ptr %66, align 8
  %67 = getelementptr inbounds i8, ptr %0, i64 416
  store ptr @.str.20, ptr %67, align 8
  %68 = getelementptr inbounds i8, ptr %0, i64 424
  store i8 0, ptr %68, align 8
  %69 = getelementptr inbounds i8, ptr %0, i64 425
  store i8 0, ptr %69, align 1
  %70 = getelementptr inbounds i8, ptr %0, i64 426
  store i8 0, ptr %70, align 2
  store ptr getelementptr inbounds inrange(-16, 40) (i8, ptr @_ZTV12DCmdArgumentIPcE, i64 16), ptr %62, align 8
  tail call void @_ZN10DCmdParser15add_dcmd_optionEP15GenDCmdArgument(ptr noundef nonnull align 8 dereferenceable(16) %7, ptr noundef nonnull %8) #7
  tail call void @_ZN10DCmdParser15add_dcmd_optionEP15GenDCmdArgument(ptr noundef nonnull align 8 dereferenceable(16) %7, ptr noundef nonnull %17) #7
  tail call void @_ZN10DCmdParser15add_dcmd_optionEP15GenDCmdArgument(ptr noundef nonnull align 8 dereferenceable(16) %7, ptr noundef nonnull %26) #7
  tail call void @_ZN10DCmdParser15add_dcmd_optionEP15GenDCmdArgument(ptr noundef nonnull align 8 dereferenceable(16) %7, ptr noundef nonnull %35) #7
  tail call void @_ZN10DCmdParser15add_dcmd_optionEP15GenDCmdArgument(ptr noundef nonnull align 8 dereferenceable(16) %7, ptr noundef nonnull %44) #7
  tail call void @_ZN10DCmdParser15add_dcmd_optionEP15GenDCmdArgument(ptr noundef nonnull align 8 dereferenceable(16) %7, ptr noundef nonnull %53) #7
  tail call void @_ZN10DCmdParser15add_dcmd_optionEP15GenDCmdArgument(ptr noundef nonnull align 8 dereferenceable(16) %7, ptr noundef nonnull %62) #7
  ret void
}